Microsoft (R) Macro Assembler Version 5.10                  10/31/22 09:51:2
                                                             Page     1-1


				ASSUME CS:CODE, SS:AStack, DS:DATA
				 
 0000				AStack    SEGMENT  STACK
 0000  0020[			          DW 32 DUP(0)
	   0000			
			 ]	
				
 0040				AStack    ENDS
				 
 0000				DATA      SEGMENT
				 
 0000  0000			i	DW	0
 0002  0000			a 	DW 	0
 0004  0000			b	DW	0
 0006  0000			k	DW	0
				 
 0008  0000			i1	DW	0		;f1
 000A  0000			i2	DW	0		;f2
 000C  0000			res	DW	0		;f3
				 
 000E				DATA      ENDS
				 
 0000				CODE SEGMENT
				 
 0000				Main      PROC  FAR
 0000  B8 ---- R			mov   AX,DATA
 0003  8E D8				mov   DS,AX
				 
				;–í—ã—á–∏—Å–ª–µ–Ω–∏–µ f1 –∏ f2
 0005  A1 0002 R			mov ax,a	;ax = a
 0008  8B 0E 0000 R			mov cx,i	;cx = i
 000C  3B 06 0004 R			cmp ax,b	;–°—Ä–∞–≤–Ω–µ–Ω–∏–µ –∑–
				Ω–∞—á–µ–Ω–∏–π a –∏ b
 0010  8B 16 0004 R			mov dx,b	;dx = b	
 0014  7F 1F				jg PART1	;–µ—Å–ª–∏ a>b —Ç–æ –Ω–∞
				 PART1
				 
					;–µ—Å–ª–∏ a<=b:
 0016  B8 0008				mov ax,8	;ax = 8
 0019  8B 16 0000 R			mov dx,i	;dx = i
 001D  D1 E2				sal dx,1	;dx = 2i
 001F  D1 E1				sal cx,1	;cx = 2i
 0021  D1 E1				sal cx,1	;cx = 4i
 0023  03 CA				add cx,dx	;cx = 2i + 4i = 6i
 0025  2B C1				sub ax,cx	;ax = 8 - 6i	
 0027  A3 0008 R			mov i1,ax	;i1(f1) = ax = 8 - 6i
				 
 002A  D1 F8				sar ax,1	;ax = ax/2 = 4-3i
 002C  05 0006				add ax,6	;ax = ax+6 = 10-3i
 002F  A3 000A R			mov i2,ax	;i2(f2) = ax = 10 - 3i
 0032  EB 17 90				jmp PART2	;–∏–¥–µ–º –Ω–∞ PART2
				 
 0035				PART1:			;–µ—Å–ª–∏ a>b
 0035  8B 0E 0000 R			mov cx,i	;cx = i	
Microsoft (R) Macro Assembler Version 5.10                  10/31/22 09:51:2
                                                             Page     1-2


 0039  D1 E1				sal cx,1	;cx = 2i
 003B  D1 E1				sal cx,1	;cx = 4i
 003D  B8 0007				mov ax,7	;ax = 7
 0040  2B C1				sub ax,cx	;ax = ax - cx = 7 - 4i
 0042  A3 0008 R			mov i1,ax	;i1(f1) = ax = 7 - 4i
				 
 0045  2D 0002				sub ax,2	;ax = ax-2 = 7-4i-2 = 5
				-4i
 0048  A3 000A R			mov i2,ax	;i2(f2) = cx = -(4i - 5
				)
				 
				;–í—ã—á–∏—Å–ª–µ–Ω–∏–µ f3
 004B				PART2:
 004B  BB 0000				mov bx,0
 004E  3B 1E 0008 R			cmp bx,i1	
 0052  76 04				jbe CHECK1	;–µ—Å–ª–∏ 0 <= i1, —Ç–æ
				 –Ω–∞ CHECK1
					
 0054				ABS1:
 0054  F7 1E 0008 R			neg i1
				
 0058				CHECK1:
 0058  A1 0006 R			mov ax,k
				 
 005B  3B C3				cmp ax,bx	;—Å—Ä–∞–≤–Ω–∏–≤–∞–µ–º k
				 –∏ 0
 005D  74 10				je PART21	;–µ—Å–ª–∏ k —Ä–∞–≤–Ω–æ 
				0, —Ç–æ –Ω–∞ PART21
				
 005F				CHECK:
 005F  3B 1E 000A R			cmp bx,i2
 0063  7F 03				jg ABS2		;–µ—Å–ª–∏ 0 > i2, —Ç–æ 
				–Ω–∞ ABS2
 0065  EB 1F 90				jmp PART4	;–∏–Ω–∞—á–µ –∏–¥—ë–º –Ω
				–∞ PART4
				
 0068				ABS2:
 0068  F7 1E 000A R			neg i2
 006C  EB 18 90				jmp PART4
				
 006F				PART21:	
							;–µ—Å–ª–∏ –∫ = 0
 006F  A1 0008 R			mov ax,i1	;ax = i1
 0072  BB 0006				mov bx,6	;bx = 6
 0075  3B C3				cmp ax,bx
 0077  7F 06				jg PART3	;–µ—Å–ª–∏ i1 > 6 —Ç–æ –
				Ω–∞ PART3
				 
 0079  A3 000C R			mov res,ax	;res = ax = i1
 007C  EB 12 90				jmp ENDPART
 007F				PART3:
 007F  89 1E 000C R			mov res,bx	;res = bx = 6
 0083  EB 0B 90				jmp ENDPART
				 
Microsoft (R) Macro Assembler Version 5.10                  10/31/22 09:51:2
                                                             Page     1-3


 0086				PART4:			;–µ—Å–ª–∏ k –Ω–µ —Ä–∞–≤
				–Ω–æ 0
 0086  A1 0008 R			mov ax, i1
 0089  03 06 000A R			add ax,i2	;ax = ax + i2
 008D  A3 000C R			mov res,ax	;res = ax = i1 + i2
				
 0090				ENDPART:
 0090  CD 20				int 20h
				 
 0092				Main      ENDP
 0092				CODE      ENDS
				          END Main
Microsoft (R) Macro Assembler Version 5.10                  10/31/22 09:51:2
                                                             Symbols-1


Segments and Groups:

                N a m e         	Length	 Align	Combine Class

ASTACK . . . . . . . . . . . . .  	0040	PARA	STACK	
CODE . . . . . . . . . . . . . .  	0092	PARA	NONE	
DATA . . . . . . . . . . . . . .  	000E	PARA	NONE	

Symbols:            

                N a m e         	Type	 Value	 Attr

A  . . . . . . . . . . . . . . .  	L WORD	0002	DATA
ABS1 . . . . . . . . . . . . . .  	L NEAR	0054	CODE
ABS2 . . . . . . . . . . . . . .  	L NEAR	0068	CODE

B  . . . . . . . . . . . . . . .  	L WORD	0004	DATA

CHECK  . . . . . . . . . . . . .  	L NEAR	005F	CODE
CHECK1 . . . . . . . . . . . . .  	L NEAR	0058	CODE

ENDPART  . . . . . . . . . . . .  	L NEAR	0090	CODE

I  . . . . . . . . . . . . . . .  	L WORD	0000	DATA
I1 . . . . . . . . . . . . . . .  	L WORD	0008	DATA
I2 . . . . . . . . . . . . . . .  	L WORD	000A	DATA

K  . . . . . . . . . . . . . . .  	L WORD	0006	DATA

MAIN . . . . . . . . . . . . . .  	F PROC	0000	CODE	Length = 0092

PART1  . . . . . . . . . . . . .  	L NEAR	0035	CODE
PART2  . . . . . . . . . . . . .  	L NEAR	004B	CODE
PART21 . . . . . . . . . . . . .  	L NEAR	006F	CODE
PART3  . . . . . . . . . . . . .  	L NEAR	007F	CODE
PART4  . . . . . . . . . . . . .  	L NEAR	0086	CODE

RES  . . . . . . . . . . . . . .  	L WORD	000C	DATA

@CPU . . . . . . . . . . . . . .  	TEXT  0101h		
@FILENAME  . . . . . . . . . . .  	TEXT  lab3		
@VERSION . . . . . . . . . . . .  	TEXT  510		

Microsoft (R) Macro Assembler Version 5.10                  10/31/22 09:51:2
                                                             Symbols-2



    106 Source  Lines
    106 Total   Lines
     26 Symbols

  48058 + 461249 Bytes symbol space free

      0 Warning Errors
      0 Severe  Errors
